target datalayout = "e-m:e-p270:32:32-p271:32:32-p272:64:64-i64:64-i128:128-f80:128-n8:16:32:64-S128"
target triple = "x86_64-pc-linux-gnu"

%struct._dumpOptions = type { %struct._connParams, i32, i32, i8, ptr, i32, i32, i32, i32, i32, i32, i32, i32, i32, i32, i32, i32, i32, i32, i32, i32, i32, i8, i32, i32, i8, i8, i32, ptr, i32, i32, i8, i8 }
%struct._connParams = type { ptr, ptr, ptr, ptr, i32, ptr }
%struct.CatalogId = type { i32, i32 }
%struct.Archive = type { ptr, ptr, i32, ptr, i32, i8, i32, i32, i32, ptr, i32, i8, ptr, ptr, i8, i32, ptr }
%struct._dumpableObject = type { i32, %struct.CatalogId, i32, ptr, ptr, i32, i32, i32, i8, i8, ptr, i32, i32 }
%struct.PQExpBufferData = type { ptr, i64, i64 }
%struct._dumpableAcl = type { ptr, ptr, i8, ptr }
%struct._namespaceInfo = type { %struct._dumpableObject, %struct._dumpableAcl, i8, i32, ptr }
%struct._extensionInfo = type { %struct._dumpableObject, ptr, i8, ptr, ptr, ptr }
%struct._tmplInfo = type { %struct._dumpableObject, i32, i32 }

@.str.106 = private unnamed_addr constant [4 x i8] c"oid\00", align 1
@.str.107 = private unnamed_addr constant [9 x i8] c"tableoid\00", align 1
@.str.485 = private unnamed_addr constant [98 x i8] c"SELECT tableoid, oid, tmplname, tmplnamespace, tmplinit::oid, tmpllexize::oid FROM pg_ts_template\00", align 1
@.str.486 = private unnamed_addr constant [9 x i8] c"tmplname\00", align 1
@.str.487 = private unnamed_addr constant [14 x i8] c"tmplnamespace\00", align 1
@.str.488 = private unnamed_addr constant [9 x i8] c"tmplinit\00", align 1
@.str.489 = private unnamed_addr constant [11 x i8] c"tmpllexize\00", align 1
@.str.754 = private unnamed_addr constant [34 x i8] c"schema with OID %u does not exist\00", align 1

; Function Attrs: nounwind uwtable
define internal zeroext i1 @checkExtensionMembership(ptr noundef %0, ptr noundef %1) #0 {
  %3 = alloca i1, align 1
  %4 = alloca ptr, align 8
  %5 = alloca ptr, align 8
  %6 = alloca ptr, align 8
  %7 = alloca i32, align 4
  store ptr %0, ptr %4, align 8
  store ptr %1, ptr %5, align 8
  call void @llvm.lifetime.start.p0(i64 8, ptr %6) #10
  %8 = load ptr, ptr %4, align 8
  %9 = getelementptr inbounds nuw %struct._dumpableObject, ptr %8, i32 0, i32 1
  %10 = load i64, ptr %9, align 4
  %11 = call ptr @findOwningExtension(i64 %10)
  store ptr %11, ptr %6, align 8
  %12 = load ptr, ptr %6, align 8
  %13 = icmp eq ptr %12, null
  br i1 %13, label %14, label %15

14:                                               ; preds = %2
  store i1 false, ptr %3, align 1
  store i32 1, ptr %7, align 4
  br label %54

15:                                               ; preds = %2
  %16 = load ptr, ptr %4, align 8
  %17 = getelementptr inbounds nuw %struct._dumpableObject, ptr %16, i32 0, i32 8
  store i8 1, ptr %17, align 4
  %18 = load ptr, ptr %4, align 8
  %19 = load ptr, ptr %6, align 8
  %20 = getelementptr inbounds nuw %struct._extensionInfo, ptr %19, i32 0, i32 0
  %21 = getelementptr inbounds nuw %struct._dumpableObject, ptr %20, i32 0, i32 2
  %22 = load i32, ptr %21, align 4
  call void @addObjectDependency(ptr noundef %18, i32 noundef %22)
  %23 = load ptr, ptr %5, align 8
  %24 = getelementptr inbounds nuw %struct.Archive, ptr %23, i32 0, i32 0
  %25 = load ptr, ptr %24, align 8
  %26 = getelementptr inbounds nuw %struct._dumpOptions, ptr %25, i32 0, i32 1
  %27 = load i32, ptr %26, align 8
  %28 = icmp ne i32 %27, 0
  br i1 %28, label %29, label %36

29:                                               ; preds = %15
  %30 = load ptr, ptr %6, align 8
  %31 = getelementptr inbounds nuw %struct._extensionInfo, ptr %30, i32 0, i32 0
  %32 = getelementptr inbounds nuw %struct._dumpableObject, ptr %31, i32 0, i32 5
  %33 = load i32, ptr %32, align 8
  %34 = load ptr, ptr %4, align 8
  %35 = getelementptr inbounds nuw %struct._dumpableObject, ptr %34, i32 0, i32 5
  store i32 %33, ptr %35, align 8
  br label %53

36:                                               ; preds = %15
  %37 = load ptr, ptr %5, align 8
  %38 = getelementptr inbounds nuw %struct.Archive, ptr %37, i32 0, i32 4
  %39 = load i32, ptr %38, align 8
  %40 = icmp slt i32 %39, 90600
  br i1 %40, label %41, label %44

41:                                               ; preds = %36
  %42 = load ptr, ptr %4, align 8
  %43 = getelementptr inbounds nuw %struct._dumpableObject, ptr %42, i32 0, i32 5
  store i32 0, ptr %43, align 8
  br label %52

44:                                               ; preds = %36
  %45 = load ptr, ptr %6, align 8
  %46 = getelementptr inbounds nuw %struct._extensionInfo, ptr %45, i32 0, i32 0
  %47 = getelementptr inbounds nuw %struct._dumpableObject, ptr %46, i32 0, i32 6
  %48 = load i32, ptr %47, align 4
  %49 = and i32 %48, 16
  %50 = load ptr, ptr %4, align 8
  %51 = getelementptr inbounds nuw %struct._dumpableObject, ptr %50, i32 0, i32 5
  store i32 %49, ptr %51, align 8
  br label %52

52:                                               ; preds = %44, %41
  br label %53

53:                                               ; preds = %52, %29
  store i1 true, ptr %3, align 1
  store i32 1, ptr %7, align 4
  br label %54

54:                                               ; preds = %53, %14
  call void @llvm.lifetime.end.p0(i64 8, ptr %6) #10
  %55 = load i1, ptr %3, align 1
  ret i1 %55
}

; Function Attrs: nounwind uwtable
define internal void @selectDumpableObject(ptr noundef %0, ptr noundef %1) #0 {
  %3 = alloca ptr, align 8
  %4 = alloca ptr, align 8
  store ptr %0, ptr %3, align 8
  store ptr %1, ptr %4, align 8
  %5 = load ptr, ptr %3, align 8
  %6 = load ptr, ptr %4, align 8
  %7 = call zeroext i1 @checkExtensionMembership(ptr noundef %5, ptr noundef %6)
  br i1 %7, label %8, label %9

8:                                                ; preds = %2
  br label %33

9:                                                ; preds = %2
  %10 = load ptr, ptr %3, align 8
  %11 = getelementptr inbounds nuw %struct._dumpableObject, ptr %10, i32 0, i32 4
  %12 = load ptr, ptr %11, align 8
  %13 = icmp ne ptr %12, null
  br i1 %13, label %14, label %23

14:                                               ; preds = %9
  %15 = load ptr, ptr %3, align 8
  %16 = getelementptr inbounds nuw %struct._dumpableObject, ptr %15, i32 0, i32 4
  %17 = load ptr, ptr %16, align 8
  %18 = getelementptr inbounds nuw %struct._namespaceInfo, ptr %17, i32 0, i32 0
  %19 = getelementptr inbounds nuw %struct._dumpableObject, ptr %18, i32 0, i32 6
  %20 = load i32, ptr %19, align 4
  %21 = load ptr, ptr %3, align 8
  %22 = getelementptr inbounds nuw %struct._dumpableObject, ptr %21, i32 0, i32 5
  store i32 %20, ptr %22, align 8
  br label %33

23:                                               ; preds = %9
  %24 = load ptr, ptr %4, align 8
  %25 = getelementptr inbounds nuw %struct.Archive, ptr %24, i32 0, i32 0
  %26 = load ptr, ptr %25, align 8
  %27 = getelementptr inbounds nuw %struct._dumpOptions, ptr %26, i32 0, i32 22
  %28 = load i8, ptr %27, align 4, !range !6, !noundef !7
  %29 = trunc i8 %28 to i1
  %30 = select i1 %29, i32 65535, i32 0
  %31 = load ptr, ptr %3, align 8
  %32 = getelementptr inbounds nuw %struct._dumpableObject, ptr %31, i32 0, i32 5
  store i32 %30, ptr %32, align 8
  br label %33

33:                                               ; preds = %8, %23, %14
  ret void
}

; Function Attrs: nounwind uwtable
define internal ptr @findNamespace(i32 noundef %0) #0 {
  %2 = alloca i32, align 4
  %3 = alloca ptr, align 8
  store i32 %0, ptr %2, align 4
  call void @llvm.lifetime.start.p0(i64 8, ptr %3) #10
  %4 = load i32, ptr %2, align 4
  %5 = call ptr @findNamespaceByOid(i32 noundef %4)
  store ptr %5, ptr %3, align 8
  %6 = load ptr, ptr %3, align 8
  %7 = icmp eq ptr %6, null
  br i1 %7, label %8, label %13

8:                                                ; preds = %1
  br label %9

9:                                                ; preds = %8
  %10 = load i32, ptr %2, align 4
  call void (i32, i32, ptr, ...) @pg_log_generic(i32 noundef 4, i32 noundef 0, ptr noundef @.str.754, i32 noundef %10)
  call void @exit_nicely(i32 noundef 1) #12
  unreachable

11:                                               ; No predecessors!
  br label %12

12:                                               ; preds = %11
  br label %13

13:                                               ; preds = %12, %1
  %14 = load ptr, ptr %3, align 8
  call void @llvm.lifetime.end.p0(i64 8, ptr %3) #10
  ret ptr %14
}

; Function Attrs: nounwind uwtable
define dso_local void @getTSTemplates(ptr noundef %0) #0 {
  %2 = alloca ptr, align 8
  %3 = alloca ptr, align 8
  %4 = alloca i32, align 4
  %5 = alloca i32, align 4
  %6 = alloca ptr, align 8
  %7 = alloca ptr, align 8
  %8 = alloca i32, align 4
  %9 = alloca i32, align 4
  %10 = alloca i32, align 4
  %11 = alloca i32, align 4
  %12 = alloca i32, align 4
  %13 = alloca i32, align 4
  store ptr %0, ptr %2, align 8
  call void @llvm.lifetime.start.p0(i64 8, ptr %3) #10
  call void @llvm.lifetime.start.p0(i64 4, ptr %4) #10
  call void @llvm.lifetime.start.p0(i64 4, ptr %5) #10
  call void @llvm.lifetime.start.p0(i64 8, ptr %6) #10
  call void @llvm.lifetime.start.p0(i64 8, ptr %7) #10
  call void @llvm.lifetime.start.p0(i64 4, ptr %8) #10
  call void @llvm.lifetime.start.p0(i64 4, ptr %9) #10
  call void @llvm.lifetime.start.p0(i64 4, ptr %10) #10
  call void @llvm.lifetime.start.p0(i64 4, ptr %11) #10
  call void @llvm.lifetime.start.p0(i64 4, ptr %12) #10
  call void @llvm.lifetime.start.p0(i64 4, ptr %13) #10
  %14 = call ptr @createPQExpBuffer()
  store ptr %14, ptr %6, align 8
  %15 = load ptr, ptr %6, align 8
  call void @appendPQExpBufferStr(ptr noundef %15, ptr noundef @.str.485)
  %16 = load ptr, ptr %2, align 8
  %17 = load ptr, ptr %6, align 8
  %18 = getelementptr inbounds nuw %struct.PQExpBufferData, ptr %17, i32 0, i32 0
  %19 = load ptr, ptr %18, align 8
  %20 = call ptr @ExecuteSqlQuery(ptr noundef %16, ptr noundef %19, i32 noundef 2)
  store ptr %20, ptr %3, align 8
  %21 = load ptr, ptr %3, align 8
  %22 = call i32 @PQntuples(ptr noundef %21)
  store i32 %22, ptr %4, align 4
  %23 = load i32, ptr %4, align 4
  %24 = sext i32 %23 to i64
  %25 = mul i64 %24, 72
  %26 = call ptr @pg_malloc(i64 noundef %25)
  store ptr %26, ptr %7, align 8
  %27 = load ptr, ptr %3, align 8
  %28 = call i32 @PQfnumber(ptr noundef %27, ptr noundef @.str.107)
  store i32 %28, ptr %8, align 4
  %29 = load ptr, ptr %3, align 8
  %30 = call i32 @PQfnumber(ptr noundef %29, ptr noundef @.str.106)
  store i32 %30, ptr %9, align 4
  %31 = load ptr, ptr %3, align 8
  %32 = call i32 @PQfnumber(ptr noundef %31, ptr noundef @.str.486)
  store i32 %32, ptr %10, align 4
  %33 = load ptr, ptr %3, align 8
  %34 = call i32 @PQfnumber(ptr noundef %33, ptr noundef @.str.487)
  store i32 %34, ptr %11, align 4
  %35 = load ptr, ptr %3, align 8
  %36 = call i32 @PQfnumber(ptr noundef %35, ptr noundef @.str.488)
  store i32 %36, ptr %12, align 4
  %37 = load ptr, ptr %3, align 8
  %38 = call i32 @PQfnumber(ptr noundef %37, ptr noundef @.str.489)
  store i32 %38, ptr %13, align 4
  store i32 0, ptr %5, align 4
  br label %39

39:                                               ; preds = %133, %1
  %40 = load i32, ptr %5, align 4
  %41 = load i32, ptr %4, align 4
  %42 = icmp slt i32 %40, %41
  br i1 %42, label %43, label %136

43:                                               ; preds = %39
  %44 = load ptr, ptr %7, align 8
  %45 = load i32, ptr %5, align 4
  %46 = sext i32 %45 to i64
  %47 = getelementptr inbounds %struct._tmplInfo, ptr %44, i64 %46
  %48 = getelementptr inbounds nuw %struct._tmplInfo, ptr %47, i32 0, i32 0
  %49 = getelementptr inbounds nuw %struct._dumpableObject, ptr %48, i32 0, i32 0
  store i32 29, ptr %49, align 8
  %50 = load ptr, ptr %3, align 8
  %51 = load i32, ptr %5, align 4
  %52 = load i32, ptr %8, align 4
  %53 = call ptr @PQgetvalue(ptr noundef %50, i32 noundef %51, i32 noundef %52)
  %54 = call i64 @strtoul(ptr noundef %53, ptr noundef null, i32 noundef 10) #10
  %55 = trunc i64 %54 to i32
  %56 = load ptr, ptr %7, align 8
  %57 = load i32, ptr %5, align 4
  %58 = sext i32 %57 to i64
  %59 = getelementptr inbounds %struct._tmplInfo, ptr %56, i64 %58
  %60 = getelementptr inbounds nuw %struct._tmplInfo, ptr %59, i32 0, i32 0
  %61 = getelementptr inbounds nuw %struct._dumpableObject, ptr %60, i32 0, i32 1
  %62 = getelementptr inbounds nuw %struct.CatalogId, ptr %61, i32 0, i32 0
  store i32 %55, ptr %62, align 4
  %63 = load ptr, ptr %3, align 8
  %64 = load i32, ptr %5, align 4
  %65 = load i32, ptr %9, align 4
  %66 = call ptr @PQgetvalue(ptr noundef %63, i32 noundef %64, i32 noundef %65)
  %67 = call i64 @strtoul(ptr noundef %66, ptr noundef null, i32 noundef 10) #10
  %68 = trunc i64 %67 to i32
  %69 = load ptr, ptr %7, align 8
  %70 = load i32, ptr %5, align 4
  %71 = sext i32 %70 to i64
  %72 = getelementptr inbounds %struct._tmplInfo, ptr %69, i64 %71
  %73 = getelementptr inbounds nuw %struct._tmplInfo, ptr %72, i32 0, i32 0
  %74 = getelementptr inbounds nuw %struct._dumpableObject, ptr %73, i32 0, i32 1
  %75 = getelementptr inbounds nuw %struct.CatalogId, ptr %74, i32 0, i32 1
  store i32 %68, ptr %75, align 4
  %76 = load ptr, ptr %7, align 8
  %77 = load i32, ptr %5, align 4
  %78 = sext i32 %77 to i64
  %79 = getelementptr inbounds %struct._tmplInfo, ptr %76, i64 %78
  %80 = getelementptr inbounds nuw %struct._tmplInfo, ptr %79, i32 0, i32 0
  call void @AssignDumpId(ptr noundef %80)
  %81 = load ptr, ptr %3, align 8
  %82 = load i32, ptr %5, align 4
  %83 = load i32, ptr %10, align 4
  %84 = call ptr @PQgetvalue(ptr noundef %81, i32 noundef %82, i32 noundef %83)
  %85 = call ptr @pg_strdup(ptr noundef %84)
  %86 = load ptr, ptr %7, align 8
  %87 = load i32, ptr %5, align 4
  %88 = sext i32 %87 to i64
  %89 = getelementptr inbounds %struct._tmplInfo, ptr %86, i64 %88
  %90 = getelementptr inbounds nuw %struct._tmplInfo, ptr %89, i32 0, i32 0
  %91 = getelementptr inbounds nuw %struct._dumpableObject, ptr %90, i32 0, i32 3
  store ptr %85, ptr %91, align 8
  %92 = load ptr, ptr %3, align 8
  %93 = load i32, ptr %5, align 4
  %94 = load i32, ptr %11, align 4
  %95 = call ptr @PQgetvalue(ptr noundef %92, i32 noundef %93, i32 noundef %94)
  %96 = call i64 @strtoul(ptr noundef %95, ptr noundef null, i32 noundef 10) #10
  %97 = trunc i64 %96 to i32
  %98 = call ptr @findNamespace(i32 noundef %97)
  %99 = load ptr, ptr %7, align 8
  %100 = load i32, ptr %5, align 4
  %101 = sext i32 %100 to i64
  %102 = getelementptr inbounds %struct._tmplInfo, ptr %99, i64 %101
  %103 = getelementptr inbounds nuw %struct._tmplInfo, ptr %102, i32 0, i32 0
  %104 = getelementptr inbounds nuw %struct._dumpableObject, ptr %103, i32 0, i32 4
  store ptr %98, ptr %104, align 8
  %105 = load ptr, ptr %3, align 8
  %106 = load i32, ptr %5, align 4
  %107 = load i32, ptr %12, align 4
  %108 = call ptr @PQgetvalue(ptr noundef %105, i32 noundef %106, i32 noundef %107)
  %109 = call i64 @strtoul(ptr noundef %108, ptr noundef null, i32 noundef 10) #10
  %110 = trunc i64 %109 to i32
  %111 = load ptr, ptr %7, align 8
  %112 = load i32, ptr %5, align 4
  %113 = sext i32 %112 to i64
  %114 = getelementptr inbounds %struct._tmplInfo, ptr %111, i64 %113
  %115 = getelementptr inbounds nuw %struct._tmplInfo, ptr %114, i32 0, i32 1
  store i32 %110, ptr %115, align 8
  %116 = load ptr, ptr %3, align 8
  %117 = load i32, ptr %5, align 4
  %118 = load i32, ptr %13, align 4
  %119 = call ptr @PQgetvalue(ptr noundef %116, i32 noundef %117, i32 noundef %118)
  %120 = call i64 @strtoul(ptr noundef %119, ptr noundef null, i32 noundef 10) #10
  %121 = trunc i64 %120 to i32
  %122 = load ptr, ptr %7, align 8
  %123 = load i32, ptr %5, align 4
  %124 = sext i32 %123 to i64
  %125 = getelementptr inbounds %struct._tmplInfo, ptr %122, i64 %124
  %126 = getelementptr inbounds nuw %struct._tmplInfo, ptr %125, i32 0, i32 2
  store i32 %121, ptr %126, align 4
  %127 = load ptr, ptr %7, align 8
  %128 = load i32, ptr %5, align 4
  %129 = sext i32 %128 to i64
  %130 = getelementptr inbounds %struct._tmplInfo, ptr %127, i64 %129
  %131 = getelementptr inbounds nuw %struct._tmplInfo, ptr %130, i32 0, i32 0
  %132 = load ptr, ptr %2, align 8
  call void @selectDumpableObject(ptr noundef %131, ptr noundef %132)
  br label %133

133:                                              ; preds = %43
  %134 = load i32, ptr %5, align 4
  %135 = add i32 %134, 1
  store i32 %135, ptr %5, align 4
  br label %39, !llvm.loop !95

136:                                              ; preds = %39
  %137 = load ptr, ptr %3, align 8
  call void @PQclear(ptr noundef %137)
  %138 = load ptr, ptr %6, align 8
  call void @destroyPQExpBuffer(ptr noundef %138)
  call void @llvm.lifetime.end.p0(i64 4, ptr %13) #10
  call void @llvm.lifetime.end.p0(i64 4, ptr %12) #10
  call void @llvm.lifetime.end.p0(i64 4, ptr %11) #10
  call void @llvm.lifetime.end.p0(i64 4, ptr %10) #10
  call void @llvm.lifetime.end.p0(i64 4, ptr %9) #10
  call void @llvm.lifetime.end.p0(i64 4, ptr %8) #10
  call void @llvm.lifetime.end.p0(i64 8, ptr %7) #10
  call void @llvm.lifetime.end.p0(i64 8, ptr %6) #10
  call void @llvm.lifetime.end.p0(i64 4, ptr %5) #10
  call void @llvm.lifetime.end.p0(i64 4, ptr %4) #10
  call void @llvm.lifetime.end.p0(i64 8, ptr %3) #10
  ret void
}