; Function Attrs: nounwind uwtable
define dso_local void @getTSTemplates(ptr noundef %0) local_unnamed_addr #5 {
  %2 = tail call ptr @createPQExpBuffer() #14
  tail call void @appendPQExpBufferStr(ptr noundef %2, ptr noundef nonnull @.str.485) #14
  %3 = load ptr, ptr %2, align 8
  %4 = tail call ptr @ExecuteSqlQuery(ptr noundef %0, ptr noundef %3, i32 noundef 2) #14
  %5 = tail call i32 @PQntuples(ptr noundef %4) #14
  %6 = sext i32 %5 to i64
  %7 = mul nsw i64 %6, 72
  %8 = tail call ptr @pg_malloc(i64 noundef %7) #14
  %9 = tail call i32 @PQfnumber(ptr noundef %4, ptr noundef nonnull @.str.107) #14
  %10 = tail call i32 @PQfnumber(ptr noundef %4, ptr noundef nonnull @.str.106) #14
  %11 = tail call i32 @PQfnumber(ptr noundef %4, ptr noundef nonnull @.str.486) #14
  %12 = tail call i32 @PQfnumber(ptr noundef %4, ptr noundef nonnull @.str.487) #14
  %13 = tail call i32 @PQfnumber(ptr noundef %4, ptr noundef nonnull @.str.488) #14
  %14 = tail call i32 @PQfnumber(ptr noundef %4, ptr noundef nonnull @.str.489) #14
  %15 = icmp sgt i32 %5, 0
  br i1 %15, label %.lr.ph, label %._crit_edge

.lr.ph:                                           ; preds = %1
  %16 = getelementptr inbounds nuw i8, ptr %0, i64 32
  %wide.trip.count = zext nneg i32 %5 to i64
  br label %17

17:                                               ; preds = %.lr.ph, %selectDumpableObject.exit
  %indvars.iv = phi i64 [ 0, %.lr.ph ], [ %indvars.iv.next, %selectDumpableObject.exit ]
  %18 = getelementptr inbounds nuw %struct._tmplInfo, ptr %8, i64 %indvars.iv
  store i32 29, ptr %18, align 8
  %19 = trunc nuw nsw i64 %indvars.iv to i32
  %20 = tail call ptr @PQgetvalue(ptr noundef %4, i32 noundef %19, i32 noundef %9) #14
  %21 = tail call i64 @strtoul(ptr noundef captures(none) %20, ptr noundef null, i32 noundef 10) #14
  %22 = trunc i64 %21 to i32
  %23 = getelementptr inbounds nuw i8, ptr %18, i64 4
  store i32 %22, ptr %23, align 4
  %24 = tail call ptr @PQgetvalue(ptr noundef %4, i32 noundef %19, i32 noundef %10) #14
  %25 = tail call i64 @strtoul(ptr noundef captures(none) %24, ptr noundef null, i32 noundef 10) #14
  %26 = trunc i64 %25 to i32
  %27 = getelementptr inbounds nuw i8, ptr %18, i64 8
  store i32 %26, ptr %27, align 4
  tail call void @AssignDumpId(ptr noundef nonnull %18) #14
  %28 = tail call ptr @PQgetvalue(ptr noundef %4, i32 noundef %19, i32 noundef %11) #14
  %29 = tail call ptr @pg_strdup(ptr noundef %28) #14
  %30 = getelementptr inbounds nuw i8, ptr %18, i64 16
  store ptr %29, ptr %30, align 8
  %31 = tail call ptr @PQgetvalue(ptr noundef %4, i32 noundef %19, i32 noundef %12) #14
  %32 = tail call i64 @strtoul(ptr noundef captures(none) %31, ptr noundef null, i32 noundef 10) #14
  %33 = trunc i64 %32 to i32
  %34 = tail call ptr @findNamespaceByOid(i32 noundef %33) #14
  %35 = icmp eq ptr %34, null
  br i1 %35, label %36, label %findNamespace.exit

36:                                               ; preds = %17
  tail call void (i32, i32, ptr, ...) @pg_log_generic(i32 noundef 4, i32 noundef 0, ptr noundef nonnull @.str.754, i32 noundef %33) #14
  tail call void @exit_nicely(i32 noundef 1) #16
  unreachable

findNamespace.exit:                               ; preds = %17
  %37 = getelementptr inbounds nuw i8, ptr %18, i64 24
  store ptr %34, ptr %37, align 8
  %38 = tail call ptr @PQgetvalue(ptr noundef %4, i32 noundef %19, i32 noundef %13) #14
  %39 = tail call i64 @strtoul(ptr noundef captures(none) %38, ptr noundef null, i32 noundef 10) #14
  %40 = trunc i64 %39 to i32
  %41 = getelementptr inbounds nuw i8, ptr %18, i64 64
  store i32 %40, ptr %41, align 8
  %42 = tail call ptr @PQgetvalue(ptr noundef %4, i32 noundef %19, i32 noundef %14) #14
  %43 = tail call i64 @strtoul(ptr noundef captures(none) %42, ptr noundef null, i32 noundef 10) #14
  %44 = trunc i64 %43 to i32
  %45 = getelementptr inbounds nuw i8, ptr %18, i64 68
  store i32 %44, ptr %45, align 4
  %46 = load i64, ptr %23, align 4
  %47 = tail call ptr @findOwningExtension(i64 %46) #14
  %.not7.i = icmp eq ptr %47, null
  br i1 %.not7.i, label %checkExtensionMembership.exit.i, label %48

48:                                               ; preds = %findNamespace.exit
  %49 = getelementptr inbounds nuw i8, ptr %18, i64 44
  store i8 1, ptr %49, align 4
  %50 = getelementptr inbounds nuw i8, ptr %47, i64 12
  %51 = load i32, ptr %50, align 4
  tail call void @addObjectDependency(ptr noundef nonnull %18, i32 noundef %51) #14
  %52 = load ptr, ptr %0, align 8
  %53 = getelementptr inbounds nuw i8, ptr %52, i64 48
  %54 = load i32, ptr %53, align 8
  %.not.i.i = icmp eq i32 %54, 0
  br i1 %.not.i.i, label %58, label %55

55:                                               ; preds = %48
  %56 = getelementptr inbounds nuw i8, ptr %47, i64 32
  %57 = load i32, ptr %56, align 8
  br label %selectDumpableObject.exit

58:                                               ; preds = %48
  %59 = load i32, ptr %16, align 8
  %60 = icmp slt i32 %59, 90600
  br i1 %60, label %selectDumpableObject.exit, label %61

61:                                               ; preds = %58
  %62 = getelementptr inbounds nuw i8, ptr %47, i64 36
  %63 = load i32, ptr %62, align 4
  %64 = and i32 %63, 16
  br label %selectDumpableObject.exit

checkExtensionMembership.exit.i:                  ; preds = %findNamespace.exit
  %65 = load ptr, ptr %37, align 8
  %.not.i = icmp eq ptr %65, null
  br i1 %.not.i, label %69, label %66

66:                                               ; preds = %checkExtensionMembership.exit.i
  %67 = getelementptr inbounds nuw i8, ptr %65, i64 36
  %68 = load i32, ptr %67, align 4
  br label %selectDumpableObject.exit

69:                                               ; preds = %checkExtensionMembership.exit.i
  %70 = load ptr, ptr %0, align 8
  %71 = getelementptr inbounds nuw i8, ptr %70, i64 140
  %72 = load i8, ptr %71, align 4, !range !7, !noundef !8
  %73 = trunc nuw i8 %72 to i1
  %74 = select i1 %73, i32 65535, i32 0
  br label %selectDumpableObject.exit

selectDumpableObject.exit:                        ; preds = %55, %58, %61, %66, %69
  %.sink.i.sink.i = phi i32 [ %74, %69 ], [ %68, %66 ], [ %57, %55 ], [ %64, %61 ], [ 0, %58 ]
  %75 = getelementptr inbounds nuw i8, ptr %18, i64 32
  store i32 %.sink.i.sink.i, ptr %75, align 8
  %indvars.iv.next = add nuw nsw i64 %indvars.iv, 1
  %exitcond.not = icmp eq i64 %indvars.iv.next, %wide.trip.count
  br i1 %exitcond.not, label %._crit_edge, label %17, !llvm.loop !117

._crit_edge:                                      ; preds = %selectDumpableObject.exit, %1
  tail call void @PQclear(ptr noundef %4) #14
  tail call void @destroyPQExpBuffer(ptr noundef nonnull %2) #14
  ret void
}